#include <math.h>
#include <stdio.h>
#include <stdlib.h>
#include <string.h>

void main ()
{
	int m=0,n,k,i=0,j;
	scanf("%d%d",&n,&k);
	loop:i++;
	m=i*n+k;
	for(j=0;j<n-1;j++)
	{
		if(m%(n-1)==0)m=m/(n-1)*n+k;
		else  goto loop;
		if(j==n-2)goto push;
	}
	push:printf("%d\n",m);
}