; ModuleID = '54/59.c'
source_filename = "54/59.c"
target datalayout = "e-m:e-p270:32:32-p271:32:32-p272:64:64-i64:64-f80:128-n8:16:32:64-S128"
target triple = "x86_64-pc-linux-gnu"

@.str = private unnamed_addr constant [5 x i8] c"%d%d\00", align 1
@.str.1 = private unnamed_addr constant [4 x i8] c"%d\0A\00", align 1

; Function Attrs: noinline nounwind uwtable
define dso_local void @main() #0 {
  %1 = alloca i32, align 4
  %2 = alloca i32, align 4
  %3 = alloca i32, align 4
  %4 = alloca i32, align 4
  %5 = alloca i32, align 4
  store i32 0, i32* %1, align 4
  store i32 0, i32* %4, align 4
  %6 = call i32 (i8*, ...) @__isoc99_scanf(i8* getelementptr inbounds ([5 x i8], [5 x i8]* @.str, i64 0, i64 0), i32* %2, i32* %3)
  br label %7

7:                                                ; preds = %35, %0
  %8 = load i32, i32* %4, align 4
  %9 = add nsw i32 %8, 1
  store i32 %9, i32* %4, align 4
  %10 = load i32, i32* %4, align 4
  %11 = load i32, i32* %2, align 4
  %12 = mul nsw i32 %10, %11
  %13 = load i32, i32* %3, align 4
  %14 = add nsw i32 %12, %13
  store i32 %14, i32* %1, align 4
  store i32 0, i32* %5, align 4
  br label %15

15:                                               ; preds = %43, %7
  %16 = load i32, i32* %5, align 4
  %17 = load i32, i32* %2, align 4
  %18 = sub nsw i32 %17, 1
  %19 = icmp slt i32 %16, %18
  br i1 %19, label %20, label %46

20:                                               ; preds = %15
  %21 = load i32, i32* %1, align 4
  %22 = load i32, i32* %2, align 4
  %23 = sub nsw i32 %22, 1
  %24 = srem i32 %21, %23
  %25 = icmp eq i32 %24, 0
  br i1 %25, label %26, label %35

26:                                               ; preds = %20
  %27 = load i32, i32* %1, align 4
  %28 = load i32, i32* %2, align 4
  %29 = sub nsw i32 %28, 1
  %30 = sdiv i32 %27, %29
  %31 = load i32, i32* %2, align 4
  %32 = mul nsw i32 %30, %31
  %33 = load i32, i32* %3, align 4
  %34 = add nsw i32 %32, %33
  store i32 %34, i32* %1, align 4
  br label %36

35:                                               ; preds = %20
  br label %7

36:                                               ; preds = %26
  %37 = load i32, i32* %5, align 4
  %38 = load i32, i32* %2, align 4
  %39 = sub nsw i32 %38, 2
  %40 = icmp eq i32 %37, %39
  br i1 %40, label %41, label %42

41:                                               ; preds = %36
  br label %47

42:                                               ; preds = %36
  br label %43

43:                                               ; preds = %42
  %44 = load i32, i32* %5, align 4
  %45 = add nsw i32 %44, 1
  store i32 %45, i32* %5, align 4
  br label %15

46:                                               ; preds = %15
  br label %47

47:                                               ; preds = %46, %41
  %48 = load i32, i32* %1, align 4
  %49 = call i32 (i8*, ...) @printf(i8* getelementptr inbounds ([4 x i8], [4 x i8]* @.str.1, i64 0, i64 0), i32 %48)
  ret void
}

declare dso_local i32 @__isoc99_scanf(i8*, ...) #1

declare dso_local i32 @printf(i8*, ...) #1


!llvm.module.flags = !{!0}
!llvm.ident = !{!1}

!0 = !{i32 1, !"wchar_size", i32 4}
!1 = !{!"clang version 10.0.0-4ubuntu1 "}
