; ModuleID = 'source-C-CXX/53/59.c'
source_filename = "source-C-CXX/53/59.c"
target datalayout = "e-m:e-p270:32:32-p271:32:32-p272:64:64-i64:64-f80:128-n8:16:32:64-S128"
target triple = "x86_64-pc-linux-gnu"

@.str = private unnamed_addr constant [5 x i8] c"%d%d\00", align 1
@.str.1 = private unnamed_addr constant [4 x i8] c"%d\0A\00", align 1

; Function Attrs: nofree nounwind sspstrong uwtable
define dso_local void @main() local_unnamed_addr #0 {
  %1 = alloca i32, align 4
  %2 = alloca i32, align 4
  %3 = bitcast i32* %1 to i8*
  call void @llvm.lifetime.start.p0i8(i64 4, i8* nonnull %3) #3
  %4 = bitcast i32* %2 to i8*
  call void @llvm.lifetime.start.p0i8(i64 4, i8* nonnull %4) #3
  %5 = call i32 (i8*, ...) @__isoc99_scanf(i8* getelementptr inbounds ([5 x i8], [5 x i8]* @.str, i64 0, i64 0), i32* nonnull %1, i32* nonnull %2)
  %6 = load i32, i32* %1, align 4, !tbaa !5
  %7 = load i32, i32* %2, align 4, !tbaa !5
  %8 = add nsw i32 %6, -1
  %9 = add nsw i32 %6, -2
  %10 = icmp sgt i32 %6, 1
  %11 = add nsw i32 %6, %7
  br i1 %10, label %12, label %32

12:                                               ; preds = %0, %28
  %13 = phi i32 [ %31, %28 ], [ %11, %0 ]
  %14 = phi i32 [ %29, %28 ], [ 1, %0 ]
  br label %15

15:                                               ; preds = %21, %12
  %16 = phi i32 [ 0, %12 ], [ %25, %21 ]
  %17 = phi i32 [ %13, %12 ], [ %23, %21 ]
  %18 = srem i32 %17, %8
  %19 = sdiv i32 %17, %8
  %20 = icmp eq i32 %18, 0
  br i1 %20, label %21, label %28

21:                                               ; preds = %15
  %22 = mul nsw i32 %19, %6
  %23 = add nsw i32 %22, %7
  %24 = icmp ne i32 %16, %9
  %25 = add nuw nsw i32 %16, 1
  %26 = icmp slt i32 %25, %8
  %27 = select i1 %24, i1 %26, i1 false
  br i1 %27, label %15, label %32, !llvm.loop !9

28:                                               ; preds = %15
  %29 = add nuw nsw i32 %14, 1
  %30 = mul nsw i32 %29, %6
  %31 = add nsw i32 %30, %7
  br label %12

32:                                               ; preds = %21, %0
  %33 = phi i32 [ %11, %0 ], [ %23, %21 ]
  %34 = call i32 (i8*, ...) @printf(i8* nonnull dereferenceable(1) getelementptr inbounds ([4 x i8], [4 x i8]* @.str.1, i64 0, i64 0), i32 %33)
  call void @llvm.lifetime.end.p0i8(i64 4, i8* nonnull %4) #3
  call void @llvm.lifetime.end.p0i8(i64 4, i8* nonnull %3) #3
  ret void
}

; Function Attrs: argmemonly mustprogress nofree nosync nounwind willreturn
declare void @llvm.lifetime.start.p0i8(i64 immarg, i8* nocapture) #1

; Function Attrs: nofree nounwind
declare noundef i32 @__isoc99_scanf(i8* nocapture noundef readonly, ...) local_unnamed_addr #2

; Function Attrs: nofree nounwind
declare noundef i32 @printf(i8* nocapture noundef readonly, ...) local_unnamed_addr #2

; Function Attrs: argmemonly mustprogress nofree nosync nounwind willreturn
declare void @llvm.lifetime.end.p0i8(i64 immarg, i8* nocapture) #1


!llvm.module.flags = !{!0, !1, !2, !3}
!llvm.ident = !{!4}

!0 = !{i32 1, !"wchar_size", i32 4}
!1 = !{i32 7, !"PIC Level", i32 2}
!2 = !{i32 7, !"PIE Level", i32 2}
!3 = !{i32 7, !"uwtable", i32 1}
!4 = !{!"clang version 13.0.0"}
!5 = !{!6, !6, i64 0}
!6 = !{!"int", !7, i64 0}
!7 = !{!"omnipotent char", !8, i64 0}
!8 = !{!"Simple C/C++ TBAA"}
!9 = distinct !{!9, !10}
!10 = !{!"llvm.loop.mustprogress"}
